; ModuleID = 'bench/opencv/original/map.cpp.ll'
source_filename = "bench/opencv/original/map.cpp.ll"
target datalayout = "e-m:e-p270:32:32-p271:32:32-p272:64:64-i64:64-i128:128-f80:128-n8:16:32:64-S128"
target triple = "x86_64-pc-linux-gnu"

%"struct.cv::Ptr" = type { %"class.std::shared_ptr" }
%"class.std::shared_ptr" = type { %"class.std::__shared_ptr" }
%"class.std::__shared_ptr" = type { ptr, %"class.std::__shared_count" }
%"class.std::__shared_count" = type { ptr }

$_ZN2cv3PtrINS_3reg3MapEED2Ev = comdat any

@_ZTVN2cv3reg3MapE = unnamed_addr constant { [9 x ptr] } { [9 x ptr] [ptr null, ptr @_ZTIN2cv3reg3MapE, ptr @_ZN2cv3reg3MapD1Ev, ptr @_ZN2cv3reg3MapD0Ev, ptr @_ZNK2cv3reg3Map4warpERKNS_11_InputArrayERKNS_12_OutputArrayE, ptr @__cxa_pure_virtual, ptr @__cxa_pure_virtual, ptr @__cxa_pure_virtual, ptr @__cxa_pure_virtual] }, align 8
@_ZTVN10__cxxabiv117__class_type_infoE = external global [0 x ptr]
@_ZTSN2cv3reg3MapE = constant [14 x i8] c"N2cv3reg3MapE\00", align 1
@_ZTIN2cv3reg3MapE = constant { ptr, ptr } { ptr getelementptr inbounds (ptr, ptr @_ZTVN10__cxxabiv117__class_type_infoE, i64 2), ptr @_ZTSN2cv3reg3MapE }, align 8
@__libc_single_threaded = external local_unnamed_addr global i8, align 1

@_ZN2cv3reg3MapD1Ev = unnamed_addr alias void (ptr), ptr @_ZN2cv3reg3MapD2Ev

; Function Attrs: mustprogress nofree norecurse nosync nounwind willreturn memory(none) uwtable
define void @_ZN2cv3reg3MapD2Ev(ptr nocapture nonnull readnone align 8 %0) unnamed_addr #0 align 2 {
  ret void
}

; Function Attrs: mustprogress noreturn nounwind memory(inaccessiblemem: write) uwtable
define void @_ZN2cv3reg3MapD0Ev(ptr nocapture nonnull readnone align 8 %0) unnamed_addr #1 align 2 {
  tail call void @llvm.trap() #5
  unreachable
}

; Function Attrs: cold noreturn nounwind memory(inaccessiblemem: write)
declare void @llvm.trap() #2

; Function Attrs: mustprogress uwtable
define void @_ZNK2cv3reg3Map4warpERKNS_11_InputArrayERKNS_12_OutputArrayE(ptr noundef nonnull align 8 dereferenceable(8) %0, ptr noundef nonnull align 8 dereferenceable(24) %1, ptr noundef nonnull align 8 dereferenceable(24) %2) unnamed_addr #3 align 2 personality ptr @__gxx_personality_v0 {
  %4 = alloca %"struct.cv::Ptr", align 8
  %5 = load ptr, ptr %0, align 8
  %6 = getelementptr inbounds i8, ptr %5, i64 32
  %7 = load ptr, ptr %6, align 8
  call void %7(ptr dead_on_unwind nonnull writable sret(%"struct.cv::Ptr") align 8 %4, ptr noundef nonnull align 8 dereferenceable(8) %0)
  %8 = load ptr, ptr %4, align 8
  %9 = load ptr, ptr %8, align 8
  %10 = getelementptr inbounds i8, ptr %9, i64 24
  %11 = load ptr, ptr %10, align 8
  invoke void %11(ptr noundef nonnull align 8 dereferenceable(8) %8, ptr noundef nonnull align 8 dereferenceable(24) %1, ptr noundef nonnull align 8 dereferenceable(24) %2)
          to label %12 unwind label %49

12:                                               ; preds = %3
  %13 = getelementptr inbounds i8, ptr %4, i64 8
  %14 = load ptr, ptr %13, align 8
  %.not.i.i.i.i = icmp eq ptr %14, null
  br i1 %.not.i.i.i.i, label %_ZN2cv3PtrINS_3reg3MapEED2Ev.exit, label %15

15:                                               ; preds = %12
  %16 = getelementptr inbounds i8, ptr %14, i64 8
  %17 = load atomic i64, ptr %16 acquire, align 8
  %18 = icmp eq i64 %17, 4294967297
  %19 = trunc i64 %17 to i32
  br i1 %18, label %20, label %25

20:                                               ; preds = %15
  store i32 0, ptr %16, align 8
  %21 = getelementptr inbounds i8, ptr %14, i64 12
  store i32 0, ptr %21, align 4
  %22 = load ptr, ptr %14, align 8
  %23 = getelementptr inbounds i8, ptr %22, i64 16
  %24 = load ptr, ptr %23, align 8
  call void %24(ptr noundef nonnull align 8 dereferenceable(16) %14) #6
  br label %_ZNSt16_Sp_counted_baseILN9__gnu_cxx12_Lock_policyE2EE24_M_release_last_use_coldEv.exit.sink.split.i.i.i.i.i

25:                                               ; preds = %15
  %26 = load i8, ptr @__libc_single_threaded, align 1
  %.not.i.i.i.i.i = icmp eq i8 %26, 0
  br i1 %.not.i.i.i.i.i, label %29, label %27

27:                                               ; preds = %25
  %28 = add nsw i32 %19, -1
  store i32 %28, ptr %16, align 4
  br label %31

29:                                               ; preds = %25
  %30 = atomicrmw volatile add ptr %16, i32 -1 acq_rel, align 4
  br label %31

31:                                               ; preds = %29, %27
  %.0.i.i.i.i.i = phi i32 [ %19, %27 ], [ %30, %29 ]
  %32 = icmp eq i32 %.0.i.i.i.i.i, 1
  br i1 %32, label %33, label %_ZN2cv3PtrINS_3reg3MapEED2Ev.exit

33:                                               ; preds = %31
  %34 = load ptr, ptr %14, align 8
  %35 = getelementptr inbounds i8, ptr %34, i64 16
  %36 = load ptr, ptr %35, align 8
  call void %36(ptr noundef nonnull align 8 dereferenceable(16) %14) #6
  %37 = getelementptr inbounds i8, ptr %14, i64 12
  %38 = load i8, ptr @__libc_single_threaded, align 1
  %.not.i.i.i.i.i.i.i = icmp eq i8 %38, 0
  br i1 %.not.i.i.i.i.i.i.i, label %42, label %39

39:                                               ; preds = %33
  %40 = load i32, ptr %37, align 4
  %41 = add nsw i32 %40, -1
  store i32 %41, ptr %37, align 4
  br label %44

42:                                               ; preds = %33
  %43 = atomicrmw volatile add ptr %37, i32 -1 acq_rel, align 4
  br label %44

44:                                               ; preds = %42, %39
  %.0.i.i.i.i.i.i.i = phi i32 [ %40, %39 ], [ %43, %42 ]
  %45 = icmp eq i32 %.0.i.i.i.i.i.i.i, 1
  br i1 %45, label %_ZNSt16_Sp_counted_baseILN9__gnu_cxx12_Lock_policyE2EE24_M_release_last_use_coldEv.exit.sink.split.i.i.i.i.i, label %_ZN2cv3PtrINS_3reg3MapEED2Ev.exit

_ZNSt16_Sp_counted_baseILN9__gnu_cxx12_Lock_policyE2EE24_M_release_last_use_coldEv.exit.sink.split.i.i.i.i.i: ; preds = %44, %20
  %46 = load ptr, ptr %14, align 8
  %47 = getelementptr inbounds i8, ptr %46, i64 24
  %48 = load ptr, ptr %47, align 8
  call void %48(ptr noundef nonnull align 8 dereferenceable(16) %14) #6
  br label %_ZN2cv3PtrINS_3reg3MapEED2Ev.exit

_ZN2cv3PtrINS_3reg3MapEED2Ev.exit:                ; preds = %12, %31, %44, %_ZNSt16_Sp_counted_baseILN9__gnu_cxx12_Lock_policyE2EE24_M_release_last_use_coldEv.exit.sink.split.i.i.i.i.i
  ret void

49:                                               ; preds = %3
  %50 = landingpad { ptr, i32 }
          cleanup
  call void @_ZN2cv3PtrINS_3reg3MapEED2Ev(ptr noundef nonnull align 8 dereferenceable(16) %4) #6
  resume { ptr, i32 } %50
}

declare i32 @__gxx_personality_v0(...)

; Function Attrs: mustprogress nounwind uwtable
define linkonce_odr hidden void @_ZN2cv3PtrINS_3reg3MapEED2Ev(ptr noundef nonnull align 8 dereferenceable(16) %0) unnamed_addr #4 comdat align 2 personality ptr @__gxx_personality_v0 {
  %2 = getelementptr inbounds i8, ptr %0, i64 8
  %3 = load ptr, ptr %2, align 8
  %.not.i.i.i = icmp eq ptr %3, null
  br i1 %.not.i.i.i, label %_ZNSt10shared_ptrIN2cv3reg3MapEED2Ev.exit, label %4

4:                                                ; preds = %1
  %5 = getelementptr inbounds i8, ptr %3, i64 8
  %6 = load atomic i64, ptr %5 acquire, align 8
  %7 = icmp eq i64 %6, 4294967297
  %8 = trunc i64 %6 to i32
  br i1 %7, label %9, label %14

9:                                                ; preds = %4
  store i32 0, ptr %5, align 8
  %10 = getelementptr inbounds i8, ptr %3, i64 12
  store i32 0, ptr %10, align 4
  %11 = load ptr, ptr %3, align 8
  %12 = getelementptr inbounds i8, ptr %11, i64 16
  %13 = load ptr, ptr %12, align 8
  tail call void %13(ptr noundef nonnull align 8 dereferenceable(16) %3) #6
  br label %_ZNSt16_Sp_counted_baseILN9__gnu_cxx12_Lock_policyE2EE24_M_release_last_use_coldEv.exit.sink.split.i.i.i.i

14:                                               ; preds = %4
  %15 = load i8, ptr @__libc_single_threaded, align 1
  %.not.i.i.i.i = icmp eq i8 %15, 0
  br i1 %.not.i.i.i.i, label %18, label %16

16:                                               ; preds = %14
  %17 = add nsw i32 %8, -1
  store i32 %17, ptr %5, align 4
  br label %20

18:                                               ; preds = %14
  %19 = atomicrmw volatile add ptr %5, i32 -1 acq_rel, align 4
  br label %20

20:                                               ; preds = %18, %16
  %.0.i.i.i.i = phi i32 [ %8, %16 ], [ %19, %18 ]
  %21 = icmp eq i32 %.0.i.i.i.i, 1
  br i1 %21, label %22, label %_ZNSt10shared_ptrIN2cv3reg3MapEED2Ev.exit

22:                                               ; preds = %20
  %23 = load ptr, ptr %3, align 8
  %24 = getelementptr inbounds i8, ptr %23, i64 16
  %25 = load ptr, ptr %24, align 8
  tail call void %25(ptr noundef nonnull align 8 dereferenceable(16) %3) #6
  %26 = getelementptr inbounds i8, ptr %3, i64 12
  %27 = load i8, ptr @__libc_single_threaded, align 1
  %.not.i.i.i.i.i.i = icmp eq i8 %27, 0
  br i1 %.not.i.i.i.i.i.i, label %31, label %28

28:                                               ; preds = %22
  %29 = load i32, ptr %26, align 4
  %30 = add nsw i32 %29, -1
  store i32 %30, ptr %26, align 4
  br label %33

31:                                               ; preds = %22
  %32 = atomicrmw volatile add ptr %26, i32 -1 acq_rel, align 4
  br label %33

33:                                               ; preds = %31, %28
  %.0.i.i.i.i.i.i = phi i32 [ %29, %28 ], [ %32, %31 ]
  %34 = icmp eq i32 %.0.i.i.i.i.i.i, 1
  br i1 %34, label %_ZNSt16_Sp_counted_baseILN9__gnu_cxx12_Lock_policyE2EE24_M_release_last_use_coldEv.exit.sink.split.i.i.i.i, label %_ZNSt10shared_ptrIN2cv3reg3MapEED2Ev.exit

_ZNSt16_Sp_counted_baseILN9__gnu_cxx12_Lock_policyE2EE24_M_release_last_use_coldEv.exit.sink.split.i.i.i.i: ; preds = %33, %9
  %35 = load ptr, ptr %3, align 8
  %36 = getelementptr inbounds i8, ptr %35, i64 24
  %37 = load ptr, ptr %36, align 8
  tail call void %37(ptr noundef nonnull align 8 dereferenceable(16) %3) #6
  br label %_ZNSt10shared_ptrIN2cv3reg3MapEED2Ev.exit

_ZNSt10shared_ptrIN2cv3reg3MapEED2Ev.exit:        ; preds = %1, %20, %33, %_ZNSt16_Sp_counted_baseILN9__gnu_cxx12_Lock_policyE2EE24_M_release_last_use_coldEv.exit.sink.split.i.i.i.i
  ret void
}

declare void @__cxa_pure_virtual() unnamed_addr


!llvm.module.flags = !{!0, !1, !2, !3}

!0 = !{i32 1, !"wchar_size", i32 4}
!1 = !{i32 8, !"PIC Level", i32 2}
!2 = !{i32 7, !"uwtable", i32 2}
!3 = !{i32 7, !"frame-pointer", i32 2}
